target datalayout = "e-m:e-p270:32:32-p271:32:32-p272:64:64-i64:64-i128:128-f80:128-n8:16:32:64-S128"
target triple = "x86_64-pc-linux-gnu"

%struct.bio_st = type { ptr, ptr, ptr, ptr, ptr, i32, i32, i32, i32, i32, ptr, ptr, ptr, %struct.CRYPTO_REF_COUNT, i64, i64, %struct.crypto_ex_data_st }
%struct.CRYPTO_REF_COUNT = type { i32 }
%struct.crypto_ex_data_st = type { ptr, ptr }

@.str = private unnamed_addr constant [32 x i8] c"../openssl/crypto/bio/bss_bio.c\00", align 1
@__func__.BIO_nread = private unnamed_addr constant [10 x i8] c"BIO_nread\00", align 1

; Function Attrs: nounwind uwtable
define i32 @BIO_nread(ptr noundef %0, ptr noundef %1, i32 noundef %2) #0 {
  %4 = alloca i32, align 4
  %5 = alloca ptr, align 8
  %6 = alloca ptr, align 8
  %7 = alloca i32, align 4
  %8 = alloca i32, align 4
  %9 = alloca i32, align 4
  store ptr %0, ptr %5, align 8, !tbaa !10
  store ptr %1, ptr %6, align 8, !tbaa !14
  store i32 %2, ptr %7, align 4, !tbaa !12
  call void @llvm.lifetime.start.p0(i64 4, ptr %8) #5
  %10 = load ptr, ptr %5, align 8, !tbaa !10
  %11 = getelementptr inbounds nuw %struct.bio_st, ptr %10, i32 0, i32 5
  %12 = load i32, ptr %11, align 8, !tbaa !16
  %13 = icmp ne i32 %12, 0
  br i1 %13, label %15, label %14

14:                                               ; preds = %3
  call void @ERR_new()
  call void @ERR_set_debug(ptr noundef @.str, i32 noundef 763, ptr noundef @__func__.BIO_nread)
  call void (i32, i32, ptr, ...) @ERR_set_error(i32 noundef 32, i32 noundef 120, ptr noundef null)
  store i32 -2, ptr %4, align 4
  store i32 1, ptr %9, align 4
  br label %33

15:                                               ; preds = %3
  %16 = load ptr, ptr %5, align 8, !tbaa !10
  %17 = load i32, ptr %7, align 4, !tbaa !12
  %18 = sext i32 %17 to i64
  %19 = load ptr, ptr %6, align 8, !tbaa !14
  %20 = call i64 @BIO_ctrl(ptr noundef %16, i32 noundef 144, i64 noundef %18, ptr noundef %19)
  %21 = trunc i64 %20 to i32
  store i32 %21, ptr %8, align 4, !tbaa !12
  %22 = load i32, ptr %8, align 4, !tbaa !12
  %23 = icmp sgt i32 %22, 0
  br i1 %23, label %24, label %31

24:                                               ; preds = %15
  %25 = load i32, ptr %8, align 4, !tbaa !12
  %26 = sext i32 %25 to i64
  %27 = load ptr, ptr %5, align 8, !tbaa !10
  %28 = getelementptr inbounds nuw %struct.bio_st, ptr %27, i32 0, i32 14
  %29 = load i64, ptr %28, align 8, !tbaa !24
  %30 = add i64 %29, %26
  store i64 %30, ptr %28, align 8, !tbaa !24
  br label %31

31:                                               ; preds = %24, %15
  %32 = load i32, ptr %8, align 4, !tbaa !12
  store i32 %32, ptr %4, align 4
  store i32 1, ptr %9, align 4
  br label %33

33:                                               ; preds = %31, %14
  call void @llvm.lifetime.end.p0(i64 4, ptr %8) #5
  %34 = load i32, ptr %4, align 4
  ret i32 %34
}